target datalayout = "e-m:e-p270:32:32-p271:32:32-p272:64:64-i64:64-i128:128-f80:128-n8:16:32:64-S128"
target triple = "x86_64-pc-linux-gnu"

%struct.PJconsts = type { ptr, ptr, ptr, ptr, ptr, ptr, ptr, ptr, ptr, ptr, ptr, ptr, i32, ptr, ptr, ptr, ptr, ptr, ptr, ptr, ptr, double, double, double, double, double, double, double, double, double, double, double, double, double, double, double, double, double, double, double, double, double, double, i32, i32, i32, i32, i32, i32, i32, i32, i32, i32, i32, ptr, ptr, ptr, ptr, ptr, ptr, double, double, double, double, double, double, double, double, double, double, double, i32, [7 x double], i32, ptr, ptr, double, double, i32, [4 x i8], %"class.std::shared_ptr", i8, double, i8, %"class.std::__cxx11::basic_string", %"class.std::__cxx11::basic_string", %"class.std::__cxx11::basic_string", i8, %"class.std::vector", i32, %"class.std::vector.3", i32, i8, i8, i8, ptr }
%"class.std::shared_ptr" = type { %"class.std::__shared_ptr" }
%"class.std::__shared_ptr" = type { ptr, %"class.std::__shared_count" }
%"class.std::__shared_count" = type { ptr }
%"class.std::__cxx11::basic_string" = type { %"struct.std::__cxx11::basic_string<char>::_Alloc_hider", i64, %union.anon }
%"struct.std::__cxx11::basic_string<char>::_Alloc_hider" = type { ptr }
%union.anon = type { i64, [8 x i8] }
%"class.std::vector" = type { %"struct.std::_Vector_base" }
%"struct.std::_Vector_base" = type { %"struct.std::_Vector_base<osgeo::proj::operation::GridDescription, std::allocator<osgeo::proj::operation::GridDescription>>::_Vector_impl" }
%"struct.std::_Vector_base<osgeo::proj::operation::GridDescription, std::allocator<osgeo::proj::operation::GridDescription>>::_Vector_impl" = type { %"struct.std::_Vector_base<osgeo::proj::operation::GridDescription, std::allocator<osgeo::proj::operation::GridDescription>>::_Vector_impl_data" }
%"struct.std::_Vector_base<osgeo::proj::operation::GridDescription, std::allocator<osgeo::proj::operation::GridDescription>>::_Vector_impl_data" = type { ptr, ptr, ptr }
%"class.std::vector.3" = type { %"struct.std::_Vector_base.4" }
%"struct.std::_Vector_base.4" = type { %"struct.std::_Vector_base<PJCoordOperation, std::allocator<PJCoordOperation>>::_Vector_impl" }
%"struct.std::_Vector_base<PJCoordOperation, std::allocator<PJCoordOperation>>::_Vector_impl" = type { %"struct.std::_Vector_base<PJCoordOperation, std::allocator<PJCoordOperation>>::_Vector_impl_data" }
%"struct.std::_Vector_base<PJCoordOperation, std::allocator<PJCoordOperation>>::_Vector_impl_data" = type { ptr, ptr, ptr }
%"struct.(anonymous namespace)::pj_bipc_data" = type { i32 }
%struct.PJ_LP = type { double, double }
%struct.PJ_XY = type { double, double }

; Function Attrs: mustprogress uwtable
define internal { double, double } @_ZL14bipc_s_inverse5PJ_XYP8PJconsts(double %0, double %1, ptr noundef %2) #0 {
  %4 = alloca %struct.PJ_LP, align 8
  %5 = alloca %struct.PJ_XY, align 8
  %6 = alloca ptr, align 8
  %7 = alloca ptr, align 8
  %8 = alloca double, align 8
  %9 = alloca double, align 8
  %10 = alloca double, align 8
  %11 = alloca double, align 8
  %12 = alloca double, align 8
  %13 = alloca double, align 8
  %14 = alloca double, align 8
  %15 = alloca double, align 8
  %16 = alloca double, align 8
  %17 = alloca double, align 8
  %18 = alloca double, align 8
  %19 = alloca i32, align 4
  %20 = alloca i32, align 4
  %21 = alloca i32, align 4
  %22 = getelementptr inbounds nuw { double, double }, ptr %5, i32 0, i32 0
  store double %0, ptr %22, align 8
  %23 = getelementptr inbounds nuw { double, double }, ptr %5, i32 0, i32 1
  store double %1, ptr %23, align 8
  store ptr %2, ptr %6, align 8, !tbaa !3
  call void @llvm.memset.p0.i64(ptr align 8 %4, i8 0, i64 16, i1 false)
  call void @llvm.lifetime.start.p0(i64 8, ptr %7) #7
  %24 = load ptr, ptr %6, align 8, !tbaa !3
  %25 = getelementptr inbounds nuw %struct.PJconsts, ptr %24, i32 0, i32 11
  %26 = load ptr, ptr %25, align 8, !tbaa !43
  store ptr %26, ptr %7, align 8, !tbaa !41
  call void @llvm.lifetime.start.p0(i64 8, ptr %8) #7
  call void @llvm.lifetime.start.p0(i64 8, ptr %9) #7
  call void @llvm.lifetime.start.p0(i64 8, ptr %10) #7
  call void @llvm.lifetime.start.p0(i64 8, ptr %11) #7
  call void @llvm.lifetime.start.p0(i64 8, ptr %12) #7
  call void @llvm.lifetime.start.p0(i64 8, ptr %13) #7
  store double 0.000000e+00, ptr %13, align 8, !tbaa !52
  call void @llvm.lifetime.start.p0(i64 8, ptr %14) #7
  call void @llvm.lifetime.start.p0(i64 8, ptr %15) #7
  call void @llvm.lifetime.start.p0(i64 8, ptr %16) #7
  call void @llvm.lifetime.start.p0(i64 8, ptr %17) #7
  call void @llvm.lifetime.start.p0(i64 8, ptr %18) #7
  call void @llvm.lifetime.start.p0(i64 4, ptr %19) #7
  call void @llvm.lifetime.start.p0(i64 4, ptr %20) #7
  %27 = load ptr, ptr %7, align 8, !tbaa !41
  %28 = getelementptr inbounds nuw %"struct.(anonymous namespace)::pj_bipc_data", ptr %27, i32 0, i32 0
  %29 = load i32, ptr %28, align 4, !tbaa !47
  %30 = icmp ne i32 %29, 0
  br i1 %30, label %31, label %50

31:                                               ; preds = %3
  %32 = getelementptr inbounds nuw %struct.PJ_XY, ptr %5, i32 0, i32 0
  %33 = load double, ptr %32, align 8, !tbaa !53
  store double %33, ptr %8, align 8, !tbaa !52
  %34 = getelementptr inbounds nuw %struct.PJ_XY, ptr %5, i32 0, i32 0
  %35 = load double, ptr %34, align 8, !tbaa !53
  %36 = fneg double %35
  %37 = getelementptr inbounds nuw %struct.PJ_XY, ptr %5, i32 0, i32 1
  %38 = load double, ptr %37, align 8, !tbaa !55
  %39 = fmul double %38, 0x3FE6F2EBECBC4AB3
  %40 = call double @llvm.fmuladd.f64(double %36, double 0x3FE64D212B530EAD, double %39)
  %41 = getelementptr inbounds nuw %struct.PJ_XY, ptr %5, i32 0, i32 0
  store double %40, ptr %41, align 8, !tbaa !53
  %42 = getelementptr inbounds nuw %struct.PJ_XY, ptr %5, i32 0, i32 1
  %43 = load double, ptr %42, align 8, !tbaa !55
  %44 = fneg double %43
  %45 = load double, ptr %8, align 8, !tbaa !52
  %46 = fmul double %45, 0x3FE6F2EBECBC4AB3
  %47 = fneg double %46
  %48 = call double @llvm.fmuladd.f64(double %44, double 0x3FE64D212B530EAD, double %47)
  %49 = getelementptr inbounds nuw %struct.PJ_XY, ptr %5, i32 0, i32 1
  store double %48, ptr %49, align 8, !tbaa !55
  br label %50

50:                                               ; preds = %31, %3
  %51 = getelementptr inbounds nuw %struct.PJ_XY, ptr %5, i32 0, i32 0
  %52 = load double, ptr %51, align 8, !tbaa !53
  %53 = fcmp olt double %52, 0.000000e+00
  %54 = zext i1 %53 to i32
  store i32 %54, ptr %19, align 4, !tbaa !56
  br i1 %53, label %55, label %60

55:                                               ; preds = %50
  %56 = getelementptr inbounds nuw %struct.PJ_XY, ptr %5, i32 0, i32 1
  %57 = load double, ptr %56, align 8, !tbaa !55
  %58 = fsub double 0x3FF3503EE0CA3E90, %57
  %59 = getelementptr inbounds nuw %struct.PJ_XY, ptr %5, i32 0, i32 1
  store double %58, ptr %59, align 8, !tbaa !55
  store double 0xBFD5E3A8748A0BF5, ptr %16, align 8, !tbaa !52
  store double 0x3FEE11F642522D1C, ptr %17, align 8, !tbaa !52
  store double 0x3FEA20C5861FEB7D, ptr %18, align 8, !tbaa !52
  br label %64

60:                                               ; preds = %50
  %61 = getelementptr inbounds nuw %struct.PJ_XY, ptr %5, i32 0, i32 1
  %62 = load double, ptr %61, align 8, !tbaa !55
  %63 = fadd double %62, 0x3FF3503EE0CA3E90
  store double %63, ptr %61, align 8, !tbaa !55
  store double 0x3FE6A09E667F3BCD, ptr %16, align 8, !tbaa !52
  store double 0x3FE6A09E667F3BCD, ptr %17, align 8, !tbaa !52
  store double 0x3FFD2971F3AB5B39, ptr %18, align 8, !tbaa !52
  br label %64

64:                                               ; preds = %60, %55
  %65 = getelementptr inbounds nuw %struct.PJ_XY, ptr %5, i32 0, i32 0
  %66 = load double, ptr %65, align 8, !tbaa !53
  %67 = getelementptr inbounds nuw %struct.PJ_XY, ptr %5, i32 0, i32 1
  %68 = load double, ptr %67, align 8, !tbaa !55
  %69 = call double @hypot(double noundef %66, double noundef %68) #7, !tbaa !56
  store double %69, ptr %9, align 8, !tbaa !52
  %70 = load double, ptr %9, align 8, !tbaa !52
  store double %70, ptr %10, align 8, !tbaa !52
  store double %70, ptr %11, align 8, !tbaa !52
  %71 = getelementptr inbounds nuw %struct.PJ_XY, ptr %5, i32 0, i32 0
  %72 = load double, ptr %71, align 8, !tbaa !53
  %73 = getelementptr inbounds nuw %struct.PJ_XY, ptr %5, i32 0, i32 1
  %74 = load double, ptr %73, align 8, !tbaa !55
  %75 = call double @atan2(double noundef %72, double noundef %74) #7, !tbaa !56
  store double %75, ptr %15, align 8, !tbaa !52
  %76 = load double, ptr %15, align 8, !tbaa !52
  %77 = call double @llvm.fabs.f64(double %76)
  store double %77, ptr %14, align 8, !tbaa !52
  store i32 10, ptr %20, align 4, !tbaa !56
  br label %78

78:                                               ; preds = %126, %64
  %79 = load i32, ptr %20, align 4, !tbaa !56
  %80 = icmp ne i32 %79, 0
  br i1 %80, label %81, label %129

81:                                               ; preds = %78
  %82 = load double, ptr %9, align 8, !tbaa !52
  %83 = fdiv double %82, 0x3FFE5B201DDB1510
  %84 = call double @pow(double noundef %83, double noundef 0x3FF95FD4481A6FAB) #7, !tbaa !56
  %85 = call double @atan(double noundef %84) #7, !tbaa !56
  %86 = fmul double 2.000000e+00, %85
  store double %86, ptr %13, align 8, !tbaa !52
  %87 = load double, ptr %13, align 8, !tbaa !52
  %88 = fmul double 5.000000e-01, %87
  %89 = call double @tan(double noundef %88) #7, !tbaa !56
  %90 = call double @pow(double noundef %89, double noundef 0x3FE42D88E97BC06A) #7, !tbaa !56
  %91 = load double, ptr %13, align 8, !tbaa !52
  %92 = fsub double 0x3FFD0AD2C7C63F7D, %91
  %93 = fmul double 5.000000e-01, %92
  %94 = call double @tan(double noundef %93) #7, !tbaa !56
  %95 = call double @pow(double noundef %94, double noundef 0x3FE42D88E97BC06A) #7, !tbaa !56
  %96 = fadd double %90, %95
  %97 = fdiv double %96, 0x3FF45C05149D9BB7
  %98 = call double @acos(double noundef %97) #7, !tbaa !56
  store double %98, ptr %12, align 8, !tbaa !52
  %99 = load double, ptr %14, align 8, !tbaa !52
  %100 = load double, ptr %12, align 8, !tbaa !52
  %101 = fcmp olt double %99, %100
  br i1 %101, label %102, label %117

102:                                              ; preds = %81
  %103 = load double, ptr %10, align 8, !tbaa !52
  %104 = load double, ptr %12, align 8, !tbaa !52
  %105 = load i32, ptr %19, align 4, !tbaa !56
  %106 = icmp ne i32 %105, 0
  br i1 %106, label %107, label %109

107:                                              ; preds = %102
  %108 = load double, ptr %15, align 8, !tbaa !52
  br label %112

109:                                              ; preds = %102
  %110 = load double, ptr %15, align 8, !tbaa !52
  %111 = fneg double %110
  br label %112

112:                                              ; preds = %109, %107
  %113 = phi double [ %108, %107 ], [ %111, %109 ]
  %114 = fadd double %104, %113
  %115 = call double @cos(double noundef %114) #7, !tbaa !56
  %116 = fmul double %103, %115
  store double %116, ptr %9, align 8, !tbaa !52
  br label %117

117:                                              ; preds = %112, %81
  %118 = load double, ptr %11, align 8, !tbaa !52
  %119 = load double, ptr %9, align 8, !tbaa !52
  %120 = fsub double %118, %119
  %121 = call double @llvm.fabs.f64(double %120)
  %122 = fcmp olt double %121, 1.000000e-10
  br i1 %122, label %123, label %124

123:                                              ; preds = %117
  br label %129

124:                                              ; preds = %117
  %125 = load double, ptr %9, align 8, !tbaa !52
  store double %125, ptr %11, align 8, !tbaa !52
  br label %126

126:                                              ; preds = %124
  %127 = load i32, ptr %20, align 4, !tbaa !56
  %128 = add nsw i32 %127, -1
  store i32 %128, ptr %20, align 4, !tbaa !56
  br label %78, !llvm.loop !57

129:                                              ; preds = %123, %78
  %130 = load i32, ptr %20, align 4, !tbaa !56
  %131 = icmp ne i32 %130, 0
  br i1 %131, label %135, label %132

132:                                              ; preds = %129
  %133 = load ptr, ptr %6, align 8, !tbaa !3
  %134 = call i32 @proj_errno_set(ptr noundef %133, i32 noundef 2050)
  store i32 1, ptr %21, align 4
  br label %178

135:                                              ; preds = %129
  %136 = load double, ptr %18, align 8, !tbaa !52
  %137 = load double, ptr %15, align 8, !tbaa !52
  %138 = fdiv double %137, 0x3FE42D88E97BC06A
  %139 = fsub double %136, %138
  store double %139, ptr %15, align 8, !tbaa !52
  %140 = load double, ptr %16, align 8, !tbaa !52
  %141 = load double, ptr %13, align 8, !tbaa !52
  %142 = call double @cos(double noundef %141) #7, !tbaa !56
  %143 = load double, ptr %17, align 8, !tbaa !52
  %144 = load double, ptr %13, align 8, !tbaa !52
  %145 = call double @sin(double noundef %144) #7, !tbaa !56
  %146 = fmul double %143, %145
  %147 = load double, ptr %15, align 8, !tbaa !52
  %148 = call double @cos(double noundef %147) #7, !tbaa !56
  %149 = fmul double %146, %148
  %150 = call double @llvm.fmuladd.f64(double %140, double %142, double %149)
  %151 = call double @asin(double noundef %150) #7, !tbaa !56
  %152 = getelementptr inbounds nuw %struct.PJ_LP, ptr %4, i32 0, i32 1
  store double %151, ptr %152, align 8, !tbaa !59
  %153 = load double, ptr %15, align 8, !tbaa !52
  %154 = call double @sin(double noundef %153) #7, !tbaa !56
  %155 = load double, ptr %17, align 8, !tbaa !52
  %156 = load double, ptr %13, align 8, !tbaa !52
  %157 = call double @tan(double noundef %156) #7, !tbaa !56
  %158 = fdiv double %155, %157
  %159 = load double, ptr %16, align 8, !tbaa !52
  %160 = load double, ptr %15, align 8, !tbaa !52
  %161 = call double @cos(double noundef %160) #7, !tbaa !56
  %162 = fneg double %159
  %163 = call double @llvm.fmuladd.f64(double %162, double %161, double %158)
  %164 = call double @atan2(double noundef %154, double noundef %163) #7, !tbaa !56
  %165 = getelementptr inbounds nuw %struct.PJ_LP, ptr %4, i32 0, i32 0
  store double %164, ptr %165, align 8, !tbaa !61
  %166 = load i32, ptr %19, align 4, !tbaa !56
  %167 = icmp ne i32 %166, 0
  br i1 %167, label %168, label %172

168:                                              ; preds = %135
  %169 = getelementptr inbounds nuw %struct.PJ_LP, ptr %4, i32 0, i32 0
  %170 = load double, ptr %169, align 8, !tbaa !61
  %171 = fsub double %170, 0x3FFEB7C166FDFE3A
  store double %171, ptr %169, align 8, !tbaa !61
  br label %177

172:                                              ; preds = %135
  %173 = getelementptr inbounds nuw %struct.PJ_LP, ptr %4, i32 0, i32 0
  %174 = load double, ptr %173, align 8, !tbaa !61
  %175 = fsub double 0xBFD655316795B6BC, %174
  %176 = getelementptr inbounds nuw %struct.PJ_LP, ptr %4, i32 0, i32 0
  store double %175, ptr %176, align 8, !tbaa !61
  br label %177

177:                                              ; preds = %172, %168
  store i32 1, ptr %21, align 4
  br label %178

178:                                              ; preds = %177, %132
  call void @llvm.lifetime.end.p0(i64 4, ptr %20) #7
  call void @llvm.lifetime.end.p0(i64 4, ptr %19) #7
  call void @llvm.lifetime.end.p0(i64 8, ptr %18) #7
  call void @llvm.lifetime.end.p0(i64 8, ptr %17) #7
  call void @llvm.lifetime.end.p0(i64 8, ptr %16) #7
  call void @llvm.lifetime.end.p0(i64 8, ptr %15) #7
  call void @llvm.lifetime.end.p0(i64 8, ptr %14) #7
  call void @llvm.lifetime.end.p0(i64 8, ptr %13) #7
  call void @llvm.lifetime.end.p0(i64 8, ptr %12) #7
  call void @llvm.lifetime.end.p0(i64 8, ptr %11) #7
  call void @llvm.lifetime.end.p0(i64 8, ptr %10) #7
  call void @llvm.lifetime.end.p0(i64 8, ptr %9) #7
  call void @llvm.lifetime.end.p0(i64 8, ptr %8) #7
  call void @llvm.lifetime.end.p0(i64 8, ptr %7) #7
  %179 = load { double, double }, ptr %4, align 8
  ret { double, double } %179
}