; Function Attrs: mustprogress uwtable
define internal { double, double } @_ZL14bipc_s_inverse5PJ_XYP8PJconsts(double %0, double %1, ptr noundef %2) #0 {
  %4 = getelementptr inbounds nuw i8, ptr %2, i64 88
  %5 = load ptr, ptr %4, align 8, !tbaa !3
  %6 = load i32, ptr %5, align 4, !tbaa !38
  %.not = icmp eq i32 %6, 0
  br i1 %.not, label %14, label %7

7:                                                ; preds = %3
  %8 = fneg double %0
  %9 = fmul double %1, 0x3FE6F2EBECBC4AB3
  %10 = tail call double @llvm.fmuladd.f64(double %8, double 0x3FE64D212B530EAD, double %9)
  %11 = fneg double %1
  %12 = fmul double %0, 0xBFE6F2EBECBC4AB3
  %13 = tail call double @llvm.fmuladd.f64(double %11, double 0x3FE64D212B530EAD, double %12)
  br label %14

14:                                               ; preds = %7, %3
  %.sroa.0.0 = phi double [ %10, %7 ], [ %0, %3 ]
  %.sroa.7.0 = phi double [ %13, %7 ], [ %1, %3 ]
  %15 = fcmp olt double %.sroa.0.0, 0.000000e+00
  br i1 %15, label %16, label %18

16:                                               ; preds = %14
  %17 = fsub double 0x3FF3503EE0CA3E90, %.sroa.7.0
  br label %20

18:                                               ; preds = %14
  %19 = fadd double %.sroa.7.0, 0x3FF3503EE0CA3E90
  br label %20

20:                                               ; preds = %18, %16
  %.sroa.7.1 = phi double [ %17, %16 ], [ %19, %18 ]
  %.048 = phi double [ 0xBFD5E3A8748A0BF5, %16 ], [ 0x3FE6A09E667F3BCD, %18 ]
  %.047 = phi double [ 0x3FEE11F642522D1C, %16 ], [ 0x3FE6A09E667F3BCD, %18 ]
  %.046 = phi double [ 0x3FEA20C5861FEB7D, %16 ], [ 0x3FFD2971F3AB5B39, %18 ]
  %21 = tail call double @hypot(double noundef %.sroa.0.0, double noundef %.sroa.7.1) #6, !tbaa !48
  %22 = tail call double @atan2(double noundef %.sroa.0.0, double noundef %.sroa.7.1) #6, !tbaa !48
  %23 = tail call double @llvm.fabs.f64(double %22)
  %24 = fneg double %22
  %25 = select i1 %15, double %22, double %24
  br label %28

26:                                               ; preds = %48
  %27 = add nsw i32 %.057, -1
  %.not54 = icmp eq i32 %27, 0
  br i1 %.not54, label %52, label %28, !llvm.loop !49

28:                                               ; preds = %20, %26
  %.057 = phi i32 [ 10, %20 ], [ %27, %26 ]
  %.05056 = phi double [ %21, %20 ], [ %.152, %26 ]
  %29 = fdiv double %.05056, 0x3FFE5B201DDB1510
  %30 = tail call double @pow(double noundef %29, double noundef 0x3FF95FD4481A6FAB) #6, !tbaa !48
  %31 = tail call double @atan(double noundef %30) #6, !tbaa !48
  %32 = fmul double %31, 2.000000e+00
  %33 = fmul double %32, 5.000000e-01
  %34 = tail call double @tan(double noundef %33) #6, !tbaa !48
  %35 = tail call double @pow(double noundef %34, double noundef 0x3FE42D88E97BC06A) #6, !tbaa !48
  %36 = fsub double 0x3FFD0AD2C7C63F7D, %32
  %37 = fmul double %36, 5.000000e-01
  %38 = tail call double @tan(double noundef %37) #6, !tbaa !48
  %39 = tail call double @pow(double noundef %38, double noundef 0x3FE42D88E97BC06A) #6, !tbaa !48
  %40 = fadd double %35, %39
  %41 = fdiv double %40, 0x3FF45C05149D9BB7
  %42 = tail call double @acos(double noundef %41) #6, !tbaa !48
  %43 = fcmp olt double %23, %42
  br i1 %43, label %44, label %48

44:                                               ; preds = %28
  %45 = fadd double %25, %42
  %46 = tail call double @cos(double noundef %45) #6, !tbaa !48
  %47 = fmul double %21, %46
  br label %48

48:                                               ; preds = %44, %28
  %.152 = phi double [ %47, %44 ], [ %.05056, %28 ]
  %49 = fsub double %.05056, %.152
  %50 = tail call double @llvm.fabs.f64(double %49)
  %51 = fcmp olt double %50, 1.000000e-10
  br i1 %51, label %54, label %26

52:                                               ; preds = %26
  %53 = tail call i32 @proj_errno_set(ptr noundef %2, i32 noundef 2050)
  br label %73

54:                                               ; preds = %48
  %55 = fdiv double %22, 0x3FE42D88E97BC06A
  %56 = fsub double %.046, %55
  %57 = tail call double @cos(double noundef %32) #6, !tbaa !48
  %58 = tail call double @sin(double noundef %32) #6, !tbaa !48
  %59 = fmul double %.047, %58
  %60 = tail call double @cos(double noundef %56) #6, !tbaa !48
  %61 = fmul double %59, %60
  %62 = tail call double @llvm.fmuladd.f64(double %.048, double %57, double %61)
  %63 = tail call double @asin(double noundef %62) #6, !tbaa !48
  %64 = tail call double @sin(double noundef %56) #6, !tbaa !48
  %65 = tail call double @tan(double noundef %32) #6, !tbaa !48
  %66 = fdiv double %.047, %65
  %67 = tail call double @cos(double noundef %56) #6, !tbaa !48
  %68 = fneg double %.048
  %69 = tail call double @llvm.fmuladd.f64(double %68, double %67, double %66)
  %70 = tail call double @atan2(double noundef %64, double noundef %69) #6, !tbaa !48
  %71 = fadd double %70, 0xBFFEB7C166FDFE3A
  %72 = fsub double 0xBFD655316795B6BC, %70
  %.sroa.043.1 = select i1 %15, double %71, double %72
  br label %73

73:                                               ; preds = %54, %52
  %.sroa.745.0 = phi double [ %63, %54 ], [ 0.000000e+00, %52 ]
  %.sroa.043.0 = phi double [ %.sroa.043.1, %54 ], [ 0.000000e+00, %52 ]
  %.fca.0.insert = insertvalue { double, double } poison, double %.sroa.043.0, 0
  %.fca.1.insert = insertvalue { double, double } %.fca.0.insert, double %.sroa.745.0, 1
  ret { double, double } %.fca.1.insert
}